target datalayout = "e-m:e-p270:32:32-p271:32:32-p272:64:64-i64:64-i128:128-f80:128-n8:16:32:64-S128"
target triple = "x86_64-pc-linux-gnu"

%"class.std::__cxx11::list.19" = type { %"class.std::__cxx11::_List_base.20" }
%"class.std::__cxx11::_List_base.20" = type { %"struct.std::__cxx11::_List_base<int, std::allocator<int>>::_List_impl" }
%"struct.std::__cxx11::_List_base<int, std::allocator<int>>::_List_impl" = type { %"struct.std::__detail::_List_node_header" }
%"struct.std::__detail::_List_node_header" = type { %"struct.std::__detail::_List_node_base", i64 }
%"struct.std::__detail::_List_node_base" = type { ptr, ptr }
%class.AmbientOcclusionPlugin = type <{ %class.QObject, %class.FilterPlugin.base, %"class.std::vector.24", %"class.vcg::Point3", i32, i32, i32, i32, i32, ptr, ptr, i32, i32, i32, i32, i32, i8, i8, i8, i8, i32, i32, i8, [7 x i8], %class.MeshLabPlugin, %class.MeshLabPluginLogger }>
%class.QObject = type { ptr, %class.QScopedPointer }
%class.QScopedPointer = type { ptr }
%class.FilterPlugin.base = type { ptr, ptr, %"class.std::__cxx11::list", %"class.std::__cxx11::list.19" }
%"class.std::__cxx11::list" = type { %"class.std::__cxx11::_List_base" }
%"class.std::__cxx11::_List_base" = type { %"struct.std::__cxx11::_List_base<QAction *, std::allocator<QAction *>>::_List_impl" }
%"struct.std::__cxx11::_List_base<QAction *, std::allocator<QAction *>>::_List_impl" = type { %"struct.std::__detail::_List_node_header" }
%"class.std::vector.24" = type { %"struct.std::_Vector_base.25" }
%"struct.std::_Vector_base.25" = type { %"struct.std::_Vector_base<vcg::Point3<float>, std::allocator<vcg::Point3<float>>>::_Vector_impl" }
%"struct.std::_Vector_base<vcg::Point3<float>, std::allocator<vcg::Point3<float>>>::_Vector_impl" = type { %"struct.std::_Vector_base<vcg::Point3<float>, std::allocator<vcg::Point3<float>>>::_Vector_impl_data" }
%"struct.std::_Vector_base<vcg::Point3<float>, std::allocator<vcg::Point3<float>>>::_Vector_impl_data" = type { ptr, ptr, ptr }
%"class.vcg::Point3" = type { [3 x float] }
%class.MeshLabPlugin = type { ptr, i8, %class.QFileInfo }
%class.QFileInfo = type { %class.QSharedDataPointer }
%class.QSharedDataPointer = type { ptr }
%class.MeshLabPluginLogger = type { ptr, ptr }

@__glewTexImage3D = external global ptr, align 8

; Function Attrs: mustprogress uwtable
define void @_ZN22AmbientOcclusionPlugin12initTexturesEv(ptr noundef nonnull align 8 dereferenceable(185) %0) #5 align 2 {
  %2 = alloca ptr, align 8
  %3 = alloca i32, align 4
  %4 = alloca i32, align 4
  store ptr %0, ptr %2, align 8
  %5 = load ptr, ptr %2, align 8
  store i32 0, ptr %3, align 4
  %6 = getelementptr inbounds %class.AmbientOcclusionPlugin, ptr %5, i32 0, i32 7
  store i32 0, ptr %6, align 8
  %7 = getelementptr inbounds %class.AmbientOcclusionPlugin, ptr %5, i32 0, i32 8
  store i32 0, ptr %7, align 4
  %8 = getelementptr inbounds %class.AmbientOcclusionPlugin, ptr %5, i32 0, i32 15
  %9 = load i32, ptr %8, align 8
  %10 = zext i32 %9 to i64
  %11 = call { i64, i1 } @llvm.umul.with.overflow.i64(i64 %10, i64 4)
  %12 = extractvalue { i64, i1 } %11, 1
  %13 = extractvalue { i64, i1 } %11, 0
  %14 = select i1 %12, i64 -1, i64 %13
  %15 = call noalias noundef nonnull ptr @_Znam(i64 noundef %14) #21
  %16 = getelementptr inbounds %class.AmbientOcclusionPlugin, ptr %5, i32 0, i32 9
  store ptr %15, ptr %16, align 8
  store i32 1, ptr %3, align 4
  br label %17

17:                                               ; preds = %23, %1
  %18 = load i32, ptr %3, align 4
  %19 = getelementptr inbounds %class.AmbientOcclusionPlugin, ptr %5, i32 0, i32 15
  %20 = load i32, ptr %19, align 8
  %21 = icmp ult i32 %18, %20
  br i1 %21, label %22, label %26

22:                                               ; preds = %17
  br label %23

23:                                               ; preds = %22
  %24 = load i32, ptr %3, align 4
  %25 = mul i32 %24, 2
  store i32 %25, ptr %3, align 4
  br label %17, !llvm.loop !121

26:                                               ; preds = %17
  %27 = getelementptr inbounds %class.AmbientOcclusionPlugin, ptr %5, i32 0, i32 6
  call void @glGenTextures(i32 noundef 1, ptr noundef %27)
  %28 = getelementptr inbounds %class.AmbientOcclusionPlugin, ptr %5, i32 0, i32 7
  call void @glGenTextures(i32 noundef 1, ptr noundef %28)
  %29 = getelementptr inbounds %class.AmbientOcclusionPlugin, ptr %5, i32 0, i32 8
  call void @glGenTextures(i32 noundef 1, ptr noundef %29)
  %30 = getelementptr inbounds %class.AmbientOcclusionPlugin, ptr %5, i32 0, i32 15
  %31 = load i32, ptr %30, align 8
  %32 = getelementptr inbounds %class.AmbientOcclusionPlugin, ptr %5, i32 0, i32 9
  %33 = load ptr, ptr %32, align 8
  call void @glGenTextures(i32 noundef %31, ptr noundef %33)
  %34 = getelementptr inbounds %class.AmbientOcclusionPlugin, ptr %5, i32 0, i32 6
  %35 = load i32, ptr %34, align 4
  call void @glBindTexture(i32 noundef 3553, i32 noundef %35)
  call void @glTexParameteri(i32 noundef 3553, i32 noundef 10242, i32 noundef 33071)
  call void @glTexParameteri(i32 noundef 3553, i32 noundef 10243, i32 noundef 33071)
  call void @glTexParameteri(i32 noundef 3553, i32 noundef 10241, i32 noundef 9728)
  call void @glTexParameteri(i32 noundef 3553, i32 noundef 10240, i32 noundef 9728)
  call void @glTexParameteri(i32 noundef 3553, i32 noundef 34891, i32 noundef 6409)
  call void @glTexParameteri(i32 noundef 3553, i32 noundef 34892, i32 noundef 34894)
  call void @glTexParameteri(i32 noundef 3553, i32 noundef 34893, i32 noundef 515)
  %36 = getelementptr inbounds %class.AmbientOcclusionPlugin, ptr %5, i32 0, i32 20
  %37 = load i32, ptr %36, align 8
  %38 = getelementptr inbounds %class.AmbientOcclusionPlugin, ptr %5, i32 0, i32 20
  %39 = load i32, ptr %38, align 8
  call void @glTexImage2D(i32 noundef 3553, i32 noundef 0, i32 noundef 6402, i32 noundef %37, i32 noundef %39, i32 noundef 0, i32 noundef 6402, i32 noundef 5125, ptr noundef null)
  %40 = getelementptr inbounds %class.AmbientOcclusionPlugin, ptr %5, i32 0, i32 7
  %41 = load i32, ptr %40, align 8
  call void @glBindTexture(i32 noundef 32879, i32 noundef %41)
  call void @glTexParameteri(i32 noundef 32879, i32 noundef 10241, i32 noundef 9728)
  call void @glTexParameteri(i32 noundef 32879, i32 noundef 10240, i32 noundef 9728)
  call void @glTexParameteri(i32 noundef 32879, i32 noundef 10242, i32 noundef 10496)
  call void @glTexParameteri(i32 noundef 32879, i32 noundef 10243, i32 noundef 10496)
  call void @glTexParameteri(i32 noundef 32879, i32 noundef 32882, i32 noundef 10496)
  call void @glTexEnvi(i32 noundef 8960, i32 noundef 8704, i32 noundef 7681)
  %42 = load ptr, ptr @__glewTexImage3D, align 8
  %43 = getelementptr inbounds %class.AmbientOcclusionPlugin, ptr %5, i32 0, i32 11
  %44 = load i32, ptr %43, align 8
  %45 = getelementptr inbounds %class.AmbientOcclusionPlugin, ptr %5, i32 0, i32 21
  %46 = load i32, ptr %45, align 4
  %47 = getelementptr inbounds %class.AmbientOcclusionPlugin, ptr %5, i32 0, i32 21
  %48 = load i32, ptr %47, align 4
  %49 = load i32, ptr %3, align 4
  %50 = getelementptr inbounds %class.AmbientOcclusionPlugin, ptr %5, i32 0, i32 12
  %51 = load i32, ptr %50, align 4
  call void %42(i32 noundef 32879, i32 noundef 0, i32 noundef %44, i32 noundef %46, i32 noundef %48, i32 noundef %49, i32 noundef 0, i32 noundef 6408, i32 noundef %51, ptr noundef null)
  %52 = getelementptr inbounds %class.AmbientOcclusionPlugin, ptr %5, i32 0, i32 8
  %53 = load i32, ptr %52, align 4
  call void @glBindTexture(i32 noundef 32879, i32 noundef %53)
  call void @glTexParameteri(i32 noundef 32879, i32 noundef 10241, i32 noundef 9728)
  call void @glTexParameteri(i32 noundef 32879, i32 noundef 10240, i32 noundef 9728)
  call void @glTexParameteri(i32 noundef 32879, i32 noundef 10242, i32 noundef 10496)
  call void @glTexParameteri(i32 noundef 32879, i32 noundef 10243, i32 noundef 10496)
  call void @glTexParameteri(i32 noundef 32879, i32 noundef 32882, i32 noundef 10496)
  call void @glTexEnvi(i32 noundef 8960, i32 noundef 8704, i32 noundef 7681)
  %54 = load ptr, ptr @__glewTexImage3D, align 8
  %55 = getelementptr inbounds %class.AmbientOcclusionPlugin, ptr %5, i32 0, i32 11
  %56 = load i32, ptr %55, align 8
  %57 = getelementptr inbounds %class.AmbientOcclusionPlugin, ptr %5, i32 0, i32 21
  %58 = load i32, ptr %57, align 4
  %59 = getelementptr inbounds %class.AmbientOcclusionPlugin, ptr %5, i32 0, i32 21
  %60 = load i32, ptr %59, align 4
  %61 = load i32, ptr %3, align 4
  %62 = getelementptr inbounds %class.AmbientOcclusionPlugin, ptr %5, i32 0, i32 12
  %63 = load i32, ptr %62, align 4
  call void %54(i32 noundef 32879, i32 noundef 0, i32 noundef %56, i32 noundef %58, i32 noundef %60, i32 noundef %61, i32 noundef 0, i32 noundef 6408, i32 noundef %63, ptr noundef null)
  store i32 0, ptr %4, align 4
  br label %64

64:                                               ; preds = %84, %26
  %65 = load i32, ptr %4, align 4
  %66 = getelementptr inbounds %class.AmbientOcclusionPlugin, ptr %5, i32 0, i32 15
  %67 = load i32, ptr %66, align 8
  %68 = icmp ult i32 %65, %67
  br i1 %68, label %69, label %87

69:                                               ; preds = %64
  %70 = getelementptr inbounds %class.AmbientOcclusionPlugin, ptr %5, i32 0, i32 9
  %71 = load ptr, ptr %70, align 8
  %72 = load i32, ptr %4, align 4
  %73 = zext i32 %72 to i64
  %74 = getelementptr inbounds i32, ptr %71, i64 %73
  %75 = load i32, ptr %74, align 4
  call void @glBindTexture(i32 noundef 3553, i32 noundef %75)
  call void @glTexParameteri(i32 noundef 3553, i32 noundef 10241, i32 noundef 9728)
  call void @glTexParameteri(i32 noundef 3553, i32 noundef 10240, i32 noundef 9728)
  call void @glTexParameteri(i32 noundef 3553, i32 noundef 10242, i32 noundef 33071)
  call void @glTexParameteri(i32 noundef 3553, i32 noundef 10243, i32 noundef 33071)
  %76 = getelementptr inbounds %class.AmbientOcclusionPlugin, ptr %5, i32 0, i32 11
  %77 = load i32, ptr %76, align 8
  %78 = getelementptr inbounds %class.AmbientOcclusionPlugin, ptr %5, i32 0, i32 21
  %79 = load i32, ptr %78, align 4
  %80 = getelementptr inbounds %class.AmbientOcclusionPlugin, ptr %5, i32 0, i32 21
  %81 = load i32, ptr %80, align 4
  %82 = getelementptr inbounds %class.AmbientOcclusionPlugin, ptr %5, i32 0, i32 12
  %83 = load i32, ptr %82, align 4
  call void @glTexImage2D(i32 noundef 3553, i32 noundef 0, i32 noundef %77, i32 noundef %79, i32 noundef %81, i32 noundef 0, i32 noundef 6408, i32 noundef %83, ptr noundef null)
  br label %84

84:                                               ; preds = %69
  %85 = load i32, ptr %4, align 4
  %86 = add i32 %85, 1
  store i32 %86, ptr %4, align 4
  br label %64, !llvm.loop !122

87:                                               ; preds = %64
  call void @glBindTexture(i32 noundef 3553, i32 noundef 0)
  ret void
}