; Function Attrs: mustprogress uwtable
define void @_ZN22AmbientOcclusionPlugin12initTexturesEv(ptr noundef nonnull align 8 dereferenceable(185) %0) local_unnamed_addr #9 align 2 {
  %2 = getelementptr inbounds i8, ptr %0, i64 128
  store i32 0, ptr %2, align 8
  %3 = getelementptr inbounds i8, ptr %0, i64 132
  store i32 0, ptr %3, align 4
  %4 = getelementptr inbounds i8, ptr %0, i64 168
  %5 = load i32, ptr %4, align 8
  %6 = zext i32 %5 to i64
  %7 = shl nuw nsw i64 %6, 2
  %8 = tail call noalias noundef nonnull ptr @_Znam(i64 noundef %7) #29
  %9 = getelementptr inbounds i8, ptr %0, i64 136
  store ptr %8, ptr %9, align 8
  br label %10

10:                                               ; preds = %10, %1
  %.07 = phi i32 [ 1, %1 ], [ %12, %10 ]
  %11 = icmp ult i32 %.07, %5
  %12 = shl i32 %.07, 1
  br i1 %11, label %10, label %13, !llvm.loop !182

13:                                               ; preds = %10
  %14 = getelementptr inbounds i8, ptr %0, i64 124
  tail call void @glGenTextures(i32 noundef 1, ptr noundef nonnull %14)
  tail call void @glGenTextures(i32 noundef 1, ptr noundef nonnull %2)
  tail call void @glGenTextures(i32 noundef 1, ptr noundef nonnull %3)
  %15 = load i32, ptr %4, align 8
  %16 = load ptr, ptr %9, align 8
  tail call void @glGenTextures(i32 noundef %15, ptr noundef %16)
  %17 = load i32, ptr %14, align 4
  tail call void @glBindTexture(i32 noundef 3553, i32 noundef %17)
  tail call void @glTexParameteri(i32 noundef 3553, i32 noundef 10242, i32 noundef 33071)
  tail call void @glTexParameteri(i32 noundef 3553, i32 noundef 10243, i32 noundef 33071)
  tail call void @glTexParameteri(i32 noundef 3553, i32 noundef 10241, i32 noundef 9728)
  tail call void @glTexParameteri(i32 noundef 3553, i32 noundef 10240, i32 noundef 9728)
  tail call void @glTexParameteri(i32 noundef 3553, i32 noundef 34891, i32 noundef 6409)
  tail call void @glTexParameteri(i32 noundef 3553, i32 noundef 34892, i32 noundef 34894)
  tail call void @glTexParameteri(i32 noundef 3553, i32 noundef 34893, i32 noundef 515)
  %18 = getelementptr inbounds i8, ptr %0, i64 176
  %19 = load i32, ptr %18, align 8
  tail call void @glTexImage2D(i32 noundef 3553, i32 noundef 0, i32 noundef 6402, i32 noundef %19, i32 noundef %19, i32 noundef 0, i32 noundef 6402, i32 noundef 5125, ptr noundef null)
  %20 = load i32, ptr %2, align 8
  tail call void @glBindTexture(i32 noundef 32879, i32 noundef %20)
  tail call void @glTexParameteri(i32 noundef 32879, i32 noundef 10241, i32 noundef 9728)
  tail call void @glTexParameteri(i32 noundef 32879, i32 noundef 10240, i32 noundef 9728)
  tail call void @glTexParameteri(i32 noundef 32879, i32 noundef 10242, i32 noundef 10496)
  tail call void @glTexParameteri(i32 noundef 32879, i32 noundef 10243, i32 noundef 10496)
  tail call void @glTexParameteri(i32 noundef 32879, i32 noundef 32882, i32 noundef 10496)
  tail call void @glTexEnvi(i32 noundef 8960, i32 noundef 8704, i32 noundef 7681)
  %21 = load ptr, ptr @__glewTexImage3D, align 8
  %22 = getelementptr inbounds i8, ptr %0, i64 152
  %23 = load i32, ptr %22, align 8
  %24 = getelementptr inbounds i8, ptr %0, i64 180
  %25 = load i32, ptr %24, align 4
  %26 = getelementptr inbounds i8, ptr %0, i64 156
  %27 = load i32, ptr %26, align 4
  tail call void %21(i32 noundef 32879, i32 noundef 0, i32 noundef %23, i32 noundef %25, i32 noundef %25, i32 noundef %.07, i32 noundef 0, i32 noundef 6408, i32 noundef %27, ptr noundef null)
  %28 = load i32, ptr %3, align 4
  tail call void @glBindTexture(i32 noundef 32879, i32 noundef %28)
  tail call void @glTexParameteri(i32 noundef 32879, i32 noundef 10241, i32 noundef 9728)
  tail call void @glTexParameteri(i32 noundef 32879, i32 noundef 10240, i32 noundef 9728)
  tail call void @glTexParameteri(i32 noundef 32879, i32 noundef 10242, i32 noundef 10496)
  tail call void @glTexParameteri(i32 noundef 32879, i32 noundef 10243, i32 noundef 10496)
  tail call void @glTexParameteri(i32 noundef 32879, i32 noundef 32882, i32 noundef 10496)
  tail call void @glTexEnvi(i32 noundef 8960, i32 noundef 8704, i32 noundef 7681)
  %29 = load ptr, ptr @__glewTexImage3D, align 8
  %30 = load i32, ptr %22, align 8
  %31 = load i32, ptr %24, align 4
  %32 = load i32, ptr %26, align 4
  tail call void %29(i32 noundef 32879, i32 noundef 0, i32 noundef %30, i32 noundef %31, i32 noundef %31, i32 noundef %.07, i32 noundef 0, i32 noundef 6408, i32 noundef %32, ptr noundef null)
  %33 = load i32, ptr %4, align 8
  %.not = icmp eq i32 %33, 0
  br i1 %.not, label %._crit_edge, label %.lr.ph

.lr.ph:                                           ; preds = %13, %.lr.ph
  %indvars.iv = phi i64 [ %indvars.iv.next, %.lr.ph ], [ 0, %13 ]
  %34 = load ptr, ptr %9, align 8
  %35 = getelementptr inbounds i32, ptr %34, i64 %indvars.iv
  %36 = load i32, ptr %35, align 4
  tail call void @glBindTexture(i32 noundef 3553, i32 noundef %36)
  tail call void @glTexParameteri(i32 noundef 3553, i32 noundef 10241, i32 noundef 9728)
  tail call void @glTexParameteri(i32 noundef 3553, i32 noundef 10240, i32 noundef 9728)
  tail call void @glTexParameteri(i32 noundef 3553, i32 noundef 10242, i32 noundef 33071)
  tail call void @glTexParameteri(i32 noundef 3553, i32 noundef 10243, i32 noundef 33071)
  %37 = load i32, ptr %22, align 8
  %38 = load i32, ptr %24, align 4
  %39 = load i32, ptr %26, align 4
  tail call void @glTexImage2D(i32 noundef 3553, i32 noundef 0, i32 noundef %37, i32 noundef %38, i32 noundef %38, i32 noundef 0, i32 noundef 6408, i32 noundef %39, ptr noundef null)
  %indvars.iv.next = add nuw nsw i64 %indvars.iv, 1
  %40 = load i32, ptr %4, align 8
  %41 = zext i32 %40 to i64
  %42 = icmp ult i64 %indvars.iv.next, %41
  br i1 %42, label %.lr.ph, label %._crit_edge, !llvm.loop !183

._crit_edge:                                      ; preds = %.lr.ph, %13
  tail call void @glBindTexture(i32 noundef 3553, i32 noundef 0)
  ret void
}